; Function Attrs: null_pointer_is_valid sspstrong uwtable
define internal i32 @netlogon_dissect_DELTA_ALIAS_MEMBER(ptr noundef %0, i32 noundef %1, ptr noundef %2, ptr noundef %3, ptr noundef %4, ptr noundef %5) #0 {
  %7 = tail call i32 @dissect_ndr_nt_PSID_ARRAY(ptr noundef %0, i32 noundef %1, ptr noundef %2, ptr noundef %3, ptr noundef %4, ptr noundef %5)
  %8 = load i32, ptr @hf_netlogon_reserved, align 4
  %9 = tail call i32 @dissect_ndr_uint32(ptr noundef %0, i32 noundef %7, ptr noundef %2, ptr noundef %3, ptr noundef %4, ptr noundef %5, i32 noundef %8, ptr noundef null)
  %10 = load i32, ptr @hf_netlogon_reserved, align 4
  %11 = tail call i32 @dissect_ndr_uint32(ptr noundef %0, i32 noundef %9, ptr noundef %2, ptr noundef %3, ptr noundef %4, ptr noundef %5, i32 noundef %10, ptr noundef null)
  %12 = load i32, ptr @hf_netlogon_reserved, align 4
  %13 = tail call i32 @dissect_ndr_uint32(ptr noundef %0, i32 noundef %11, ptr noundef %2, ptr noundef %3, ptr noundef %4, ptr noundef %5, i32 noundef %12, ptr noundef null)
  %14 = load i32, ptr @hf_netlogon_reserved, align 4
  %15 = tail call i32 @dissect_ndr_uint32(ptr noundef %0, i32 noundef %13, ptr noundef %2, ptr noundef %3, ptr noundef %4, ptr noundef %5, i32 noundef %14, ptr noundef null)
  ret i32 %15
}